; ModuleID = '54/1121.c'
source_filename = "54/1121.c"
target datalayout = "e-m:e-p270:32:32-p271:32:32-p272:64:64-i64:64-f80:128-n8:16:32:64-S128"
target triple = "x86_64-pc-linux-gnu"

@.str = private unnamed_addr constant [5 x i8] c"%d%d\00", align 1
@.str.1 = private unnamed_addr constant [3 x i8] c"%d\00", align 1

; Function Attrs: noinline nounwind uwtable
define dso_local i32 @main() #0 {
  %1 = alloca i32, align 4
  %2 = alloca i32, align 4
  %3 = alloca i32, align 4
  %4 = alloca i32, align 4
  %5 = alloca i32, align 4
  store i32 0, i32* %1, align 4
  store i32 1, i32* %2, align 4
  %6 = call i32 (i8*, ...) @__isoc99_scanf(i8* getelementptr inbounds ([5 x i8], [5 x i8]* @.str, i64 0, i64 0), i32* %3, i32* %4)
  store i32 1, i32* %2, align 4
  br label %7

7:                                                ; preds = %18, %0
  %8 = load i32, i32* %2, align 4
  %9 = load i32, i32* %3, align 4
  %10 = load i32, i32* %4, align 4
  %11 = call i32 @devide(i32 %8, i32 %9, i32 %10)
  store i32 %11, i32* %5, align 4
  %12 = load i32, i32* %5, align 4
  %13 = icmp eq i32 %12, 1
  br i1 %13, label %14, label %17

14:                                               ; preds = %7
  %15 = load i32, i32* %2, align 4
  %16 = call i32 (i8*, ...) @printf(i8* getelementptr inbounds ([3 x i8], [3 x i8]* @.str.1, i64 0, i64 0), i32 %15)
  br label %21

17:                                               ; preds = %7
  br label %18

18:                                               ; preds = %17
  %19 = load i32, i32* %2, align 4
  %20 = add nsw i32 %19, 1
  store i32 %20, i32* %2, align 4
  br label %7

21:                                               ; preds = %14
  %22 = call i32 @getchar()
  %23 = load i32, i32* %1, align 4
  ret i32 %23
}

declare dso_local i32 @__isoc99_scanf(i8*, ...) #1

; Function Attrs: noinline nounwind uwtable
define dso_local i32 @devide(i32 %0, i32 %1, i32 %2) #0 {
  %4 = alloca i32, align 4
  %5 = alloca i32, align 4
  %6 = alloca i32, align 4
  %7 = alloca i32, align 4
  %8 = alloca i32, align 4
  %9 = alloca i32, align 4
  store i32 %0, i32* %5, align 4
  store i32 %1, i32* %6, align 4
  store i32 %2, i32* %7, align 4
  %10 = load i32, i32* %5, align 4
  store i32 %10, i32* %8, align 4
  store i32 1, i32* %9, align 4
  br label %11

11:                                               ; preds = %31, %3
  %12 = load i32, i32* %9, align 4
  %13 = load i32, i32* %6, align 4
  %14 = icmp sle i32 %12, %13
  br i1 %14, label %15, label %34

15:                                               ; preds = %11
  %16 = load i32, i32* %8, align 4
  %17 = load i32, i32* %6, align 4
  %18 = srem i32 %16, %17
  %19 = load i32, i32* %7, align 4
  %20 = icmp eq i32 %18, %19
  br i1 %20, label %21, label %29

21:                                               ; preds = %15
  %22 = load i32, i32* %8, align 4
  %23 = load i32, i32* %8, align 4
  %24 = load i32, i32* %6, align 4
  %25 = sdiv i32 %23, %24
  %26 = sub nsw i32 %22, %25
  %27 = load i32, i32* %7, align 4
  %28 = sub nsw i32 %26, %27
  store i32 %28, i32* %8, align 4
  br label %30

29:                                               ; preds = %15
  br label %34

30:                                               ; preds = %21
  br label %31

31:                                               ; preds = %30
  %32 = load i32, i32* %9, align 4
  %33 = add nsw i32 %32, 1
  store i32 %33, i32* %9, align 4
  br label %11

34:                                               ; preds = %29, %11
  %35 = load i32, i32* %9, align 4
  %36 = load i32, i32* %6, align 4
  %37 = icmp sgt i32 %35, %36
  br i1 %37, label %38, label %42

38:                                               ; preds = %34
  %39 = load i32, i32* %8, align 4
  %40 = icmp sge i32 %39, 1
  br i1 %40, label %41, label %42

41:                                               ; preds = %38
  store i32 1, i32* %4, align 4
  br label %43

42:                                               ; preds = %38, %34
  store i32 0, i32* %4, align 4
  br label %43

43:                                               ; preds = %42, %41
  %44 = load i32, i32* %4, align 4
  ret i32 %44
}

declare dso_local i32 @printf(i8*, ...) #1

declare dso_local i32 @getchar() #1


!llvm.module.flags = !{!0}
!llvm.ident = !{!1}

!0 = !{i32 1, !"wchar_size", i32 4}
!1 = !{!"clang version 10.0.0-4ubuntu1 "}
